; Function Attrs: mustprogress nounwind uwtable
define dso_local noundef ptr @_ZN4llvm17LibCallSimplifier15optimizeIsAsciiEPNS_8CallInstERNS_13IRBuilderBaseE(ptr nocapture nonnull readnone align 8 %0, ptr nocapture noundef readonly %1, ptr noundef nonnull align 8 dereferenceable(128) %2) local_unnamed_addr #0 align 2 {
  %4 = alloca %"class.llvm::Twine", align 8
  %5 = alloca %"class.llvm::Twine", align 8
  %6 = getelementptr inbounds nuw i8, ptr %1, i64 4
  %7 = load i32, ptr %6, align 4
  %8 = and i32 %7, 134217727
  %9 = zext nneg i32 %8 to i64
  %10 = sub nsw i64 0, %9
  %11 = getelementptr inbounds %"class.llvm::Use", ptr %1, i64 %10
  %12 = load ptr, ptr %11, align 8
  %13 = getelementptr inbounds nuw i8, ptr %12, i64 8
  %14 = load ptr, ptr %13, align 8
  %15 = tail call noundef ptr @_ZN4llvm11ConstantInt3getEPNS_4TypeEmb(ptr noundef %14, i64 noundef 128, i1 noundef zeroext false) #24
  %16 = getelementptr inbounds nuw i8, ptr %4, i64 32
  %17 = getelementptr inbounds nuw i8, ptr %4, i64 33
  store i8 1, ptr %17, align 1
  store ptr @.str.88, ptr %4, align 8
  store i8 3, ptr %16, align 8
  %18 = call noundef ptr @_ZN4llvm13IRBuilderBase10CreateICmpENS_7CmpInst9PredicateEPNS_5ValueES4_RKNS_5TwineE(ptr noundef nonnull align 8 dereferenceable(128) %2, i32 noundef 36, ptr noundef %12, ptr noundef %15, ptr noundef nonnull align 8 dereferenceable(34) %4)
  %19 = getelementptr inbounds nuw i8, ptr %1, i64 8
  %20 = load ptr, ptr %19, align 8
  %21 = getelementptr inbounds nuw i8, ptr %5, i64 32
  store i16 257, ptr %21, align 8
  %22 = call noundef ptr @_ZN4llvm13IRBuilderBase10CreateZExtEPNS_5ValueEPNS_4TypeERKNS_5TwineEb(ptr noundef nonnull align 8 dereferenceable(128) %2, ptr noundef %18, ptr noundef %20, ptr noundef nonnull align 8 dereferenceable(34) %5, i1 noundef zeroext false)
  ret ptr %22
}